target datalayout = "e-m:e-p270:32:32-p271:32:32-p272:64:64-i64:64-i128:128-f80:128-n8:16:32:64-S128"
target triple = "x86_64-pc-linux-gnu"

%struct.CLAMFI = type { ptr, ptr, ptr, ptr, ptr, i32, i32, i32, i32, i32, i32, i32, i32, i32, i32, i32, [1424 x i8] }

@multircpt = dso_local global i32 1, align 4

; Function Attrs: nounwind uwtable
define internal void @nullify(ptr noundef %0, ptr noundef %1, i32 noundef %2) #0 {
  %4 = alloca ptr, align 8
  %5 = alloca ptr, align 8
  %6 = alloca i32, align 4
  store ptr %0, ptr %4, align 8
  store ptr %1, ptr %5, align 8
  store i32 %2, ptr %6, align 4
  %7 = load i32, ptr %6, align 4
  %8 = and i32 %7, 1
  %9 = icmp ne i32 %8, 0
  br i1 %9, label %19, label %10

10:                                               ; preds = %3
  %11 = load i32, ptr %6, align 4
  %12 = and i32 %11, 4
  %13 = icmp ne i32 %12, 0
  br i1 %13, label %14, label %24

14:                                               ; preds = %10
  %15 = load ptr, ptr %5, align 8
  %16 = getelementptr inbounds %struct.CLAMFI, ptr %15, i32 0, i32 6
  %17 = load i32, ptr %16, align 4
  %18 = icmp sge i32 %17, 0
  br i1 %18, label %19, label %24

19:                                               ; preds = %14, %3
  %20 = load ptr, ptr %5, align 8
  %21 = getelementptr inbounds %struct.CLAMFI, ptr %20, i32 0, i32 6
  %22 = load i32, ptr %21, align 4
  %23 = call i32 @close(i32 noundef %22)
  br label %24

24:                                               ; preds = %19, %14, %10
  %25 = load i32, ptr %6, align 4
  %26 = and i32 %25, 2
  %27 = icmp ne i32 %26, 0
  br i1 %27, label %37, label %28

28:                                               ; preds = %24
  %29 = load i32, ptr %6, align 4
  %30 = and i32 %29, 4
  %31 = icmp ne i32 %30, 0
  br i1 %31, label %32, label %42

32:                                               ; preds = %28
  %33 = load ptr, ptr %5, align 8
  %34 = getelementptr inbounds %struct.CLAMFI, ptr %33, i32 0, i32 7
  %35 = load i32, ptr %34, align 8
  %36 = icmp sge i32 %35, 0
  br i1 %36, label %37, label %42

37:                                               ; preds = %32, %24
  %38 = load ptr, ptr %5, align 8
  %39 = getelementptr inbounds %struct.CLAMFI, ptr %38, i32 0, i32 7
  %40 = load i32, ptr %39, align 8
  %41 = call i32 @close(i32 noundef %40)
  br label %42

42:                                               ; preds = %37, %32, %28
  %43 = load ptr, ptr %5, align 8
  %44 = getelementptr inbounds %struct.CLAMFI, ptr %43, i32 0, i32 1
  %45 = load ptr, ptr %44, align 8
  %46 = icmp ne ptr %45, null
  br i1 %46, label %47, label %51

47:                                               ; preds = %42
  %48 = load ptr, ptr %5, align 8
  %49 = getelementptr inbounds %struct.CLAMFI, ptr %48, i32 0, i32 1
  %50 = load ptr, ptr %49, align 8
  call void @free(ptr noundef %50) #9
  br label %51

51:                                               ; preds = %47, %42
  %52 = load ptr, ptr %5, align 8
  %53 = getelementptr inbounds %struct.CLAMFI, ptr %52, i32 0, i32 2
  %54 = load ptr, ptr %53, align 8
  %55 = icmp ne ptr %54, null
  br i1 %55, label %56, label %60

56:                                               ; preds = %51
  %57 = load ptr, ptr %5, align 8
  %58 = getelementptr inbounds %struct.CLAMFI, ptr %57, i32 0, i32 2
  %59 = load ptr, ptr %58, align 8
  call void @free(ptr noundef %59) #9
  br label %60

60:                                               ; preds = %56, %51
  %61 = load ptr, ptr %5, align 8
  %62 = getelementptr inbounds %struct.CLAMFI, ptr %61, i32 0, i32 3
  %63 = load ptr, ptr %62, align 8
  %64 = icmp ne ptr %63, null
  br i1 %64, label %65, label %69

65:                                               ; preds = %60
  %66 = load ptr, ptr %5, align 8
  %67 = getelementptr inbounds %struct.CLAMFI, ptr %66, i32 0, i32 3
  %68 = load ptr, ptr %67, align 8
  call void @free(ptr noundef %68) #9
  br label %69

69:                                               ; preds = %65, %60
  %70 = load i32, ptr @multircpt, align 4
  %71 = icmp ne i32 %70, 0
  br i1 %71, label %72, label %101

72:                                               ; preds = %69
  %73 = load ptr, ptr %5, align 8
  %74 = getelementptr inbounds %struct.CLAMFI, ptr %73, i32 0, i32 14
  %75 = load i32, ptr %74, align 4
  %76 = icmp ne i32 %75, 0
  br i1 %76, label %77, label %101

77:                                               ; preds = %72
  br label %78

78:                                               ; preds = %83, %77
  %79 = load ptr, ptr %5, align 8
  %80 = getelementptr inbounds %struct.CLAMFI, ptr %79, i32 0, i32 14
  %81 = load i32, ptr %80, align 4
  %82 = icmp ne i32 %81, 0
  br i1 %82, label %83, label %97

83:                                               ; preds = %78
  %84 = load ptr, ptr %5, align 8
  %85 = getelementptr inbounds %struct.CLAMFI, ptr %84, i32 0, i32 14
  %86 = load i32, ptr %85, align 4
  %87 = add i32 %86, -1
  store i32 %87, ptr %85, align 4
  %88 = load ptr, ptr %5, align 8
  %89 = getelementptr inbounds %struct.CLAMFI, ptr %88, i32 0, i32 4
  %90 = load ptr, ptr %89, align 8
  %91 = load ptr, ptr %5, align 8
  %92 = getelementptr inbounds %struct.CLAMFI, ptr %91, i32 0, i32 14
  %93 = load i32, ptr %92, align 4
  %94 = zext i32 %93 to i64
  %95 = getelementptr inbounds ptr, ptr %90, i64 %94
  %96 = load ptr, ptr %95, align 8
  call void @free(ptr noundef %96) #9
  br label %78

97:                                               ; preds = %78
  %98 = load ptr, ptr %5, align 8
  %99 = getelementptr inbounds %struct.CLAMFI, ptr %98, i32 0, i32 4
  %100 = load ptr, ptr %99, align 8
  call void @free(ptr noundef %100) #9
  br label %101

101:                                              ; preds = %97, %72, %69
  %102 = load ptr, ptr %4, align 8
  %103 = call i32 @smfi_setpriv(ptr noundef %102, ptr noundef null)
  ret void
}