; Function Attrs: nounwind uwtable
define internal fastcc void @nullify(ptr noundef %0, ptr nocapture noundef %1, i32 noundef %2) unnamed_addr #0 {
  %4 = and i32 %2, 1
  %.not = icmp eq i32 %4, 0
  br i1 %.not, label %5, label %._crit_edge

._crit_edge:                                      ; preds = %3
  %.phi.trans.insert = getelementptr inbounds i8, ptr %1, i64 44
  %.pre = load i32, ptr %.phi.trans.insert, align 4
  br label %11

5:                                                ; preds = %3
  %6 = and i32 %2, 4
  %.not23 = icmp eq i32 %6, 0
  br i1 %.not23, label %14, label %7

7:                                                ; preds = %5
  %8 = getelementptr inbounds i8, ptr %1, i64 44
  %9 = load i32, ptr %8, align 4
  %10 = icmp sgt i32 %9, -1
  br i1 %10, label %11, label %14

11:                                               ; preds = %._crit_edge, %7
  %12 = phi i32 [ %.pre, %._crit_edge ], [ %9, %7 ]
  %13 = tail call i32 @close(i32 noundef %12) #17
  br label %14

14:                                               ; preds = %11, %7, %5
  %15 = and i32 %2, 2
  %.not24 = icmp eq i32 %15, 0
  br i1 %.not24, label %16, label %._crit_edge32

._crit_edge32:                                    ; preds = %14
  %.phi.trans.insert33 = getelementptr inbounds i8, ptr %1, i64 48
  %.pre34 = load i32, ptr %.phi.trans.insert33, align 8
  br label %22

16:                                               ; preds = %14
  %17 = and i32 %2, 4
  %.not25 = icmp eq i32 %17, 0
  br i1 %.not25, label %25, label %18

18:                                               ; preds = %16
  %19 = getelementptr inbounds i8, ptr %1, i64 48
  %20 = load i32, ptr %19, align 8
  %21 = icmp sgt i32 %20, -1
  br i1 %21, label %22, label %25

22:                                               ; preds = %._crit_edge32, %18
  %23 = phi i32 [ %.pre34, %._crit_edge32 ], [ %20, %18 ]
  %24 = tail call i32 @close(i32 noundef %23) #17
  br label %25

25:                                               ; preds = %22, %18, %16
  %26 = getelementptr inbounds i8, ptr %1, i64 8
  %27 = load ptr, ptr %26, align 8
  %.not26 = icmp eq ptr %27, null
  br i1 %.not26, label %29, label %28

28:                                               ; preds = %25
  tail call void @free(ptr noundef nonnull %27) #17
  br label %29

29:                                               ; preds = %28, %25
  %30 = getelementptr inbounds i8, ptr %1, i64 16
  %31 = load ptr, ptr %30, align 8
  %.not27 = icmp eq ptr %31, null
  br i1 %.not27, label %33, label %32

32:                                               ; preds = %29
  tail call void @free(ptr noundef nonnull %31) #17
  br label %33

33:                                               ; preds = %32, %29
  %34 = getelementptr inbounds i8, ptr %1, i64 24
  %35 = load ptr, ptr %34, align 8
  %.not28 = icmp eq ptr %35, null
  br i1 %.not28, label %37, label %36

36:                                               ; preds = %33
  tail call void @free(ptr noundef nonnull %35) #17
  br label %37

37:                                               ; preds = %36, %33
  %38 = load i32, ptr @multircpt, align 4
  %.not29 = icmp eq i32 %38, 0
  br i1 %.not29, label %52, label %39

39:                                               ; preds = %37
  %40 = getelementptr inbounds i8, ptr %1, i64 76
  %41 = load i32, ptr %40, align 4
  %.not30 = icmp eq i32 %41, 0
  br i1 %.not30, label %52, label %.preheader

.preheader:                                       ; preds = %39
  %42 = getelementptr inbounds i8, ptr %1, i64 32
  br label %43

43:                                               ; preds = %.preheader, %43
  %44 = phi i32 [ %41, %.preheader ], [ %.pr, %43 ]
  %45 = add i32 %44, -1
  store i32 %45, ptr %40, align 4
  %46 = load ptr, ptr %42, align 8
  %47 = zext i32 %45 to i64
  %48 = getelementptr inbounds ptr, ptr %46, i64 %47
  %49 = load ptr, ptr %48, align 8
  tail call void @free(ptr noundef %49) #17
  %.pr = load i32, ptr %40, align 4
  %.not31 = icmp eq i32 %.pr, 0
  br i1 %.not31, label %50, label %43

50:                                               ; preds = %43
  %51 = load ptr, ptr %42, align 8
  tail call void @free(ptr noundef %51) #17
  br label %52

52:                                               ; preds = %50, %39, %37
  %53 = tail call i32 @smfi_setpriv(ptr noundef %0, ptr noundef null) #17
  ret void
}